; ModuleID = '55/1087.cpp'
source_filename = "55/1087.cpp"
target datalayout = "e-m:e-p270:32:32-p271:32:32-p272:64:64-i64:64-f80:128-n8:16:32:64-S128"
target triple = "x86_64-pc-linux-gnu"

%"class.std::ios_base::Init" = type { i8 }
%"class.std::basic_istream" = type { i32 (...)**, i64, %"class.std::basic_ios" }
%"class.std::basic_ios" = type { %"class.std::ios_base", %"class.std::basic_ostream"*, i8, i8, %"class.std::basic_streambuf"*, %"class.std::ctype"*, %"class.std::num_put"*, %"class.std::num_get"* }
%"class.std::ios_base" = type { i32 (...)**, i64, i64, i32, i32, i32, %"struct.std::ios_base::_Callback_list"*, %"struct.std::ios_base::_Words", [8 x %"struct.std::ios_base::_Words"], i32, %"struct.std::ios_base::_Words"*, %"class.std::locale" }
%"struct.std::ios_base::_Callback_list" = type { %"struct.std::ios_base::_Callback_list"*, void (i32, %"class.std::ios_base"*, i32)*, i32, i32 }
%"struct.std::ios_base::_Words" = type { i8*, i64 }
%"class.std::locale" = type { %"class.std::locale::_Impl"* }
%"class.std::locale::_Impl" = type { i32, %"class.std::locale::facet"**, i64, %"class.std::locale::facet"**, i8** }
%"class.std::locale::facet" = type <{ i32 (...)**, i32, [4 x i8] }>
%"class.std::basic_ostream" = type { i32 (...)**, %"class.std::basic_ios" }
%"class.std::basic_streambuf" = type { i32 (...)**, i8*, i8*, i8*, i8*, i8*, i8*, %"class.std::locale" }
%"class.std::ctype" = type <{ %"class.std::locale::facet.base", [4 x i8], %struct.__locale_struct*, i8, [7 x i8], i32*, i32*, i16*, i8, [256 x i8], [256 x i8], i8, [6 x i8] }>
%"class.std::locale::facet.base" = type <{ i32 (...)**, i32 }>
%struct.__locale_struct = type { [13 x %struct.__locale_data*], i16*, i32*, i32*, [13 x i8*] }
%struct.__locale_data = type opaque
%"class.std::num_put" = type { %"class.std::locale::facet.base", [4 x i8] }
%"class.std::num_get" = type { %"class.std::locale::facet.base", [4 x i8] }

@_ZStL8__ioinit = internal global %"class.std::ios_base::Init" zeroinitializer, align 1
@__dso_handle = external hidden global i8
@_ZSt3cin = external dso_local global %"class.std::basic_istream", align 8
@_ZSt4cout = external dso_local global %"class.std::basic_ostream", align 8
@llvm.global_ctors = appending global [1 x { i32, void ()*, i8* }] [{ i32, void ()*, i8* } { i32 65535, void ()* @_GLOBAL__sub_I_1087.cpp, i8* null }]

; Function Attrs: noinline uwtable
define internal void @__cxx_global_var_init() #0 section ".text.startup" {
  call void @_ZNSt8ios_base4InitC1Ev(%"class.std::ios_base::Init"* @_ZStL8__ioinit)
  %1 = call i32 @__cxa_atexit(void (i8*)* bitcast (void (%"class.std::ios_base::Init"*)* @_ZNSt8ios_base4InitD1Ev to void (i8*)*), i8* getelementptr inbounds (%"class.std::ios_base::Init", %"class.std::ios_base::Init"* @_ZStL8__ioinit, i32 0, i32 0), i8* @__dso_handle) #3
  ret void
}

declare dso_local void @_ZNSt8ios_base4InitC1Ev(%"class.std::ios_base::Init"*) unnamed_addr #1

; Function Attrs: nounwind
declare dso_local void @_ZNSt8ios_base4InitD1Ev(%"class.std::ios_base::Init"*) unnamed_addr #2

; Function Attrs: nounwind
declare dso_local i32 @__cxa_atexit(void (i8*)*, i8*, i8*) #3

; Function Attrs: noinline norecurse uwtable
define dso_local i32 @main() #4 {
  %1 = alloca i32, align 4
  %2 = alloca i32, align 4
  %3 = alloca i32, align 4
  %4 = alloca i32, align 4
  %5 = alloca i32, align 4
  %6 = alloca i32, align 4
  %7 = alloca i32, align 4
  %8 = alloca [32 x i8], align 16
  %9 = alloca [32 x i8], align 16
  %10 = alloca i32, align 4
  %11 = alloca i32, align 4
  store i32 0, i32* %1, align 4
  store i32 0, i32* %4, align 4
  store i32 1, i32* %6, align 4
  store i32 0, i32* %7, align 4
  %12 = call dereferenceable(280) %"class.std::basic_istream"* @_ZNSirsERi(%"class.std::basic_istream"* @_ZSt3cin, i32* dereferenceable(4) %2)
  %13 = getelementptr inbounds [32 x i8], [32 x i8]* %8, i64 0, i64 0
  %14 = call dereferenceable(280) %"class.std::basic_istream"* @_ZStrsIcSt11char_traitsIcEERSt13basic_istreamIT_T0_ES6_PS3_(%"class.std::basic_istream"* dereferenceable(280) %12, i8* %13)
  %15 = call dereferenceable(280) %"class.std::basic_istream"* @_ZNSirsERi(%"class.std::basic_istream"* %14, i32* dereferenceable(4) %3)
  %16 = getelementptr inbounds [32 x i8], [32 x i8]* %8, i64 0, i64 0
  %17 = call i64 @strlen(i8* %16) #6
  %18 = trunc i64 %17 to i32
  store i32 %18, i32* %5, align 4
  %19 = load i32, i32* %5, align 4
  %20 = sub nsw i32 %19, 1
  store i32 %20, i32* %10, align 4
  br label %21

21:                                               ; preds = %105, %0
  %22 = load i32, i32* %10, align 4
  %23 = icmp sge i32 %22, 0
  br i1 %23, label %24, label %108

24:                                               ; preds = %21
  %25 = load i32, i32* %10, align 4
  %26 = sext i32 %25 to i64
  %27 = getelementptr inbounds [32 x i8], [32 x i8]* %8, i64 0, i64 %26
  %28 = load i8, i8* %27, align 1
  %29 = sext i8 %28 to i32
  %30 = icmp sge i32 %29, 48
  br i1 %30, label %31, label %49

31:                                               ; preds = %24
  %32 = load i32, i32* %10, align 4
  %33 = sext i32 %32 to i64
  %34 = getelementptr inbounds [32 x i8], [32 x i8]* %8, i64 0, i64 %33
  %35 = load i8, i8* %34, align 1
  %36 = sext i8 %35 to i32
  %37 = icmp sle i32 %36, 57
  br i1 %37, label %38, label %49

38:                                               ; preds = %31
  %39 = load i32, i32* %10, align 4
  %40 = sext i32 %39 to i64
  %41 = getelementptr inbounds [32 x i8], [32 x i8]* %8, i64 0, i64 %40
  %42 = load i8, i8* %41, align 1
  %43 = sext i8 %42 to i32
  %44 = sub nsw i32 %43, 48
  %45 = load i32, i32* %6, align 4
  %46 = mul nsw i32 %44, %45
  %47 = load i32, i32* %4, align 4
  %48 = add nsw i32 %47, %46
  store i32 %48, i32* %4, align 4
  br label %49

49:                                               ; preds = %38, %31, %24
  %50 = load i32, i32* %10, align 4
  %51 = sext i32 %50 to i64
  %52 = getelementptr inbounds [32 x i8], [32 x i8]* %8, i64 0, i64 %51
  %53 = load i8, i8* %52, align 1
  %54 = sext i8 %53 to i32
  %55 = icmp sge i32 %54, 97
  br i1 %55, label %56, label %75

56:                                               ; preds = %49
  %57 = load i32, i32* %10, align 4
  %58 = sext i32 %57 to i64
  %59 = getelementptr inbounds [32 x i8], [32 x i8]* %8, i64 0, i64 %58
  %60 = load i8, i8* %59, align 1
  %61 = sext i8 %60 to i32
  %62 = icmp sle i32 %61, 122
  br i1 %62, label %63, label %75

63:                                               ; preds = %56
  %64 = load i32, i32* %10, align 4
  %65 = sext i32 %64 to i64
  %66 = getelementptr inbounds [32 x i8], [32 x i8]* %8, i64 0, i64 %65
  %67 = load i8, i8* %66, align 1
  %68 = sext i8 %67 to i32
  %69 = sub nsw i32 %68, 97
  %70 = add nsw i32 %69, 10
  %71 = load i32, i32* %6, align 4
  %72 = mul nsw i32 %70, %71
  %73 = load i32, i32* %4, align 4
  %74 = add nsw i32 %73, %72
  store i32 %74, i32* %4, align 4
  br label %75

75:                                               ; preds = %63, %56, %49
  %76 = load i32, i32* %10, align 4
  %77 = sext i32 %76 to i64
  %78 = getelementptr inbounds [32 x i8], [32 x i8]* %8, i64 0, i64 %77
  %79 = load i8, i8* %78, align 1
  %80 = sext i8 %79 to i32
  %81 = icmp sge i32 %80, 65
  br i1 %81, label %82, label %101

82:                                               ; preds = %75
  %83 = load i32, i32* %10, align 4
  %84 = sext i32 %83 to i64
  %85 = getelementptr inbounds [32 x i8], [32 x i8]* %8, i64 0, i64 %84
  %86 = load i8, i8* %85, align 1
  %87 = sext i8 %86 to i32
  %88 = icmp sle i32 %87, 90
  br i1 %88, label %89, label %101

89:                                               ; preds = %82
  %90 = load i32, i32* %10, align 4
  %91 = sext i32 %90 to i64
  %92 = getelementptr inbounds [32 x i8], [32 x i8]* %8, i64 0, i64 %91
  %93 = load i8, i8* %92, align 1
  %94 = sext i8 %93 to i32
  %95 = sub nsw i32 %94, 65
  %96 = add nsw i32 %95, 10
  %97 = load i32, i32* %6, align 4
  %98 = mul nsw i32 %96, %97
  %99 = load i32, i32* %4, align 4
  %100 = add nsw i32 %99, %98
  store i32 %100, i32* %4, align 4
  br label %101

101:                                              ; preds = %89, %82, %75
  %102 = load i32, i32* %2, align 4
  %103 = load i32, i32* %6, align 4
  %104 = mul nsw i32 %103, %102
  store i32 %104, i32* %6, align 4
  br label %105

105:                                              ; preds = %101
  %106 = load i32, i32* %10, align 4
  %107 = add nsw i32 %106, -1
  store i32 %107, i32* %10, align 4
  br label %21

108:                                              ; preds = %21
  br label %109

109:                                              ; preds = %139, %108
  %110 = load i32, i32* %4, align 4
  %111 = load i32, i32* %3, align 4
  %112 = srem i32 %110, %111
  %113 = icmp sle i32 %112, 9
  br i1 %113, label %114, label %124

114:                                              ; preds = %109
  %115 = load i32, i32* %4, align 4
  %116 = load i32, i32* %3, align 4
  %117 = srem i32 %115, %116
  %118 = add nsw i32 %117, 48
  %119 = trunc i32 %118 to i8
  %120 = load i32, i32* %7, align 4
  %121 = add nsw i32 %120, 1
  store i32 %121, i32* %7, align 4
  %122 = sext i32 %120 to i64
  %123 = getelementptr inbounds [32 x i8], [32 x i8]* %9, i64 0, i64 %122
  store i8 %119, i8* %123, align 1
  br label %135

124:                                              ; preds = %109
  %125 = load i32, i32* %4, align 4
  %126 = load i32, i32* %3, align 4
  %127 = srem i32 %125, %126
  %128 = sub nsw i32 %127, 10
  %129 = add nsw i32 %128, 65
  %130 = trunc i32 %129 to i8
  %131 = load i32, i32* %7, align 4
  %132 = add nsw i32 %131, 1
  store i32 %132, i32* %7, align 4
  %133 = sext i32 %131 to i64
  %134 = getelementptr inbounds [32 x i8], [32 x i8]* %9, i64 0, i64 %133
  store i8 %130, i8* %134, align 1
  br label %135

135:                                              ; preds = %124, %114
  %136 = load i32, i32* %3, align 4
  %137 = load i32, i32* %4, align 4
  %138 = sdiv i32 %137, %136
  store i32 %138, i32* %4, align 4
  br label %139

139:                                              ; preds = %135
  %140 = load i32, i32* %4, align 4
  %141 = icmp ne i32 %140, 0
  br i1 %141, label %109, label %142

142:                                              ; preds = %139
  %143 = load i32, i32* %7, align 4
  %144 = sub nsw i32 %143, 1
  store i32 %144, i32* %11, align 4
  br label %145

145:                                              ; preds = %154, %142
  %146 = load i32, i32* %11, align 4
  %147 = icmp sge i32 %146, 0
  br i1 %147, label %148, label %157

148:                                              ; preds = %145
  %149 = load i32, i32* %11, align 4
  %150 = sext i32 %149 to i64
  %151 = getelementptr inbounds [32 x i8], [32 x i8]* %9, i64 0, i64 %150
  %152 = load i8, i8* %151, align 1
  %153 = call dereferenceable(272) %"class.std::basic_ostream"* @_ZStlsISt11char_traitsIcEERSt13basic_ostreamIcT_ES5_c(%"class.std::basic_ostream"* dereferenceable(272) @_ZSt4cout, i8 signext %152)
  br label %154

154:                                              ; preds = %148
  %155 = load i32, i32* %11, align 4
  %156 = add nsw i32 %155, -1
  store i32 %156, i32* %11, align 4
  br label %145

157:                                              ; preds = %145
  ret i32 0
}

declare dso_local dereferenceable(280) %"class.std::basic_istream"* @_ZStrsIcSt11char_traitsIcEERSt13basic_istreamIT_T0_ES6_PS3_(%"class.std::basic_istream"* dereferenceable(280), i8*) #1

declare dso_local dereferenceable(280) %"class.std::basic_istream"* @_ZNSirsERi(%"class.std::basic_istream"*, i32* dereferenceable(4)) #1

; Function Attrs: nounwind readonly
declare dso_local i64 @strlen(i8*) #5

declare dso_local dereferenceable(272) %"class.std::basic_ostream"* @_ZStlsISt11char_traitsIcEERSt13basic_ostreamIcT_ES5_c(%"class.std::basic_ostream"* dereferenceable(272), i8 signext) #1

; Function Attrs: noinline uwtable
define internal void @_GLOBAL__sub_I_1087.cpp() #0 section ".text.startup" {
  call void @__cxx_global_var_init()
  ret void
}


!llvm.module.flags = !{!0}
!llvm.ident = !{!1}

!0 = !{i32 1, !"wchar_size", i32 4}
!1 = !{!"clang version 10.0.0-4ubuntu1 "}
